target datalayout = "e-m:e-p270:32:32-p271:32:32-p272:64:64-i64:64-i128:128-f80:128-n8:16:32:64-S128"
target triple = "x86_64-pc-linux-gnu"

%union.LWLockPadded = type { %struct.LWLock, [112 x i8] }
%struct.LWLock = type { i16, %struct.pg_atomic_uint32, %struct.proclist_head }
%struct.pg_atomic_uint32 = type { i32 }
%struct.proclist_head = type { i32, i32 }
%struct.MultiXactStateData = type { i32, i32, i8, i32, i32, i32, i8, i32, i32, i32, i32, i32, %struct.ConditionVariable, [0 x i32] }
%struct.ConditionVariable = type { i8, %struct.proclist_head }

@MainLWLockArray = external global ptr, align 8
@MultiXactState = internal global ptr null, align 8

; Function Attrs: nounwind uwtable
define dso_local void @ReadMultiXactIdRange(ptr noundef %0, ptr noundef %1) #0 {
  %3 = alloca ptr, align 8
  %4 = alloca ptr, align 8
  store ptr %0, ptr %3, align 8
  store ptr %1, ptr %4, align 8
  %5 = load ptr, ptr @MainLWLockArray, align 8
  %6 = getelementptr inbounds %union.LWLockPadded, ptr %5, i64 13
  %7 = call zeroext i1 @LWLockAcquire(ptr noundef %6, i32 noundef 1)
  %8 = load ptr, ptr @MultiXactState, align 8
  %9 = getelementptr inbounds nuw %struct.MultiXactStateData, ptr %8, i32 0, i32 3
  %10 = load i32, ptr %9, align 4
  %11 = load ptr, ptr %3, align 8
  store i32 %10, ptr %11, align 4
  %12 = load ptr, ptr @MultiXactState, align 8
  %13 = getelementptr inbounds nuw %struct.MultiXactStateData, ptr %12, i32 0, i32 0
  %14 = load i32, ptr %13, align 4
  %15 = load ptr, ptr %4, align 8
  store i32 %14, ptr %15, align 4
  %16 = load ptr, ptr @MainLWLockArray, align 8
  %17 = getelementptr inbounds %union.LWLockPadded, ptr %16, i64 13
  call void @LWLockRelease(ptr noundef %17)
  %18 = load ptr, ptr %3, align 8
  %19 = load i32, ptr %18, align 4
  %20 = icmp ult i32 %19, 1
  br i1 %20, label %21, label %23

21:                                               ; preds = %2
  %22 = load ptr, ptr %3, align 8
  store i32 1, ptr %22, align 4
  br label %23

23:                                               ; preds = %21, %2
  %24 = load ptr, ptr %4, align 8
  %25 = load i32, ptr %24, align 4
  %26 = icmp ult i32 %25, 1
  br i1 %26, label %27, label %29

27:                                               ; preds = %23
  %28 = load ptr, ptr %4, align 8
  store i32 1, ptr %28, align 4
  br label %29

29:                                               ; preds = %27, %23
  ret void
}