; Function Attrs: nounwind uwtable
define dso_local void @ReadMultiXactIdRange(ptr noundef captures(none) initializes((0, 4)) %0, ptr noundef captures(none) initializes((0, 4)) %1) local_unnamed_addr #0 {
  %3 = load ptr, ptr @MainLWLockArray, align 8
  %4 = getelementptr inbounds nuw i8, ptr %3, i64 1664
  %5 = tail call zeroext i1 @LWLockAcquire(ptr noundef nonnull %4, i32 noundef 1) #13
  %6 = load ptr, ptr @MultiXactState, align 8
  %7 = getelementptr inbounds nuw i8, ptr %6, i64 12
  %8 = load i32, ptr %7, align 4
  store i32 %8, ptr %0, align 4
  %9 = load i32, ptr %6, align 4
  store i32 %9, ptr %1, align 4
  %10 = load ptr, ptr @MainLWLockArray, align 8
  %11 = getelementptr inbounds nuw i8, ptr %10, i64 1664
  tail call void @LWLockRelease(ptr noundef nonnull %11) #13
  %12 = load i32, ptr %0, align 4
  %13 = icmp eq i32 %12, 0
  br i1 %13, label %14, label %15

14:                                               ; preds = %2
  store i32 1, ptr %0, align 4
  br label %15

15:                                               ; preds = %14, %2
  %16 = load i32, ptr %1, align 4
  %17 = icmp eq i32 %16, 0
  br i1 %17, label %18, label %19

18:                                               ; preds = %15
  store i32 1, ptr %1, align 4
  br label %19

19:                                               ; preds = %18, %15
  ret void
}